target datalayout = "e-m:e-p270:32:32-p271:32:32-p272:64:64-i64:64-i128:128-f80:128-n8:16:32:64-S128"
target triple = "x86_64-pc-linux-gnu"

; Function Attrs: nounwind uwtable
define hidden i32 @je_buferror(i32 noundef %0, ptr noundef %1, i64 noundef %2) #0 {
  %4 = alloca i32, align 4
  %5 = alloca ptr, align 8
  %6 = alloca i64, align 8
  %7 = alloca ptr, align 8
  store i32 %0, ptr %4, align 4, !tbaa !10
  store ptr %1, ptr %5, align 8, !tbaa !8
  store i64 %2, ptr %6, align 8, !tbaa !12
  call void @llvm.lifetime.start.p0(i64 8, ptr %7) #10
  %8 = load i32, ptr %4, align 4, !tbaa !10
  %9 = load ptr, ptr %5, align 8, !tbaa !8
  %10 = load i64, ptr %6, align 8, !tbaa !12
  %11 = call ptr @strerror_r(i32 noundef %8, ptr noundef %9, i64 noundef %10) #10
  store ptr %11, ptr %7, align 8, !tbaa !8
  %12 = load ptr, ptr %7, align 8, !tbaa !8
  %13 = load ptr, ptr %5, align 8, !tbaa !8
  %14 = icmp ne ptr %12, %13
  br i1 %14, label %15, label %24

15:                                               ; preds = %3
  %16 = load ptr, ptr %5, align 8, !tbaa !8
  %17 = load ptr, ptr %7, align 8, !tbaa !8
  %18 = load i64, ptr %6, align 8, !tbaa !12
  %19 = call ptr @strncpy(ptr noundef %16, ptr noundef %17, i64 noundef %18) #10
  %20 = load ptr, ptr %5, align 8, !tbaa !8
  %21 = load i64, ptr %6, align 8, !tbaa !12
  %22 = sub i64 %21, 1
  %23 = getelementptr inbounds nuw i8, ptr %20, i64 %22
  store i8 0, ptr %23, align 1, !tbaa !16
  br label %24

24:                                               ; preds = %15, %3
  call void @llvm.lifetime.end.p0(i64 8, ptr %7) #10
  ret i32 0
}