; Function Attrs: nounwind uwtable
define hidden noundef i32 @je_buferror(i32 noundef %0, ptr noundef %1, i64 noundef %2) local_unnamed_addr #0 {
  %4 = tail call ptr @strerror_r(i32 noundef %0, ptr noundef %1, i64 noundef %2) #14
  %.not = icmp eq ptr %4, %1
  br i1 %.not, label %9, label %5

5:                                                ; preds = %3
  %6 = tail call ptr @strncpy(ptr noundef %1, ptr noundef %4, i64 noundef %2) #14
  %7 = getelementptr i8, ptr %1, i64 %2
  %8 = getelementptr i8, ptr %7, i64 -1
  store i8 0, ptr %8, align 1, !tbaa !10
  br label %9

9:                                                ; preds = %5, %3
  ret i32 0
}